target datalayout = "e-m:e-p270:32:32-p271:32:32-p272:64:64-i64:64-i128:128-f80:128-n8:16:32:64-S128"
target triple = "x86_64-pc-linux-gnu"

%struct.mock_srv_ctx = type { ptr, ptr, ptr, ptr, ptr, ptr, ptr, ptr, ptr, ptr, i32, ptr, i32, i32, i32 }

@.str = private unnamed_addr constant [35 x i8] c"../openssl/apps/lib/cmp_mock_srv.c\00", align 1
@__func__.process_certConf = private unnamed_addr constant [17 x i8] c"process_certConf\00", align 1

; Function Attrs: nounwind uwtable
define internal i32 @process_certConf(ptr noundef %0, ptr noundef %1, i32 noundef %2, ptr noundef %3, ptr noundef %4) #0 {
  %6 = alloca i32, align 4
  %7 = alloca ptr, align 8
  %8 = alloca ptr, align 8
  %9 = alloca i32, align 4
  %10 = alloca ptr, align 8
  %11 = alloca ptr, align 8
  %12 = alloca ptr, align 8
  %13 = alloca ptr, align 8
  %14 = alloca i32, align 4
  store ptr %0, ptr %7, align 8, !tbaa !4
  store ptr %1, ptr %8, align 8, !tbaa !41
  store i32 %2, ptr %9, align 4, !tbaa !31
  store ptr %3, ptr %10, align 8, !tbaa !60
  store ptr %4, ptr %11, align 8, !tbaa !34
  call void @llvm.lifetime.start.p0(i64 8, ptr %12) #5
  %15 = load ptr, ptr %7, align 8, !tbaa !4
  %16 = call ptr @OSSL_CMP_SRV_CTX_get0_custom_ctx(ptr noundef %15)
  store ptr %16, ptr %12, align 8, !tbaa !11
  call void @llvm.lifetime.start.p0(i64 8, ptr %13) #5
  %17 = load ptr, ptr %12, align 8, !tbaa !11
  %18 = icmp eq ptr %17, null
  br i1 %18, label %25, label %19

19:                                               ; preds = %5
  %20 = load ptr, ptr %8, align 8, !tbaa !41
  %21 = icmp eq ptr %20, null
  br i1 %21, label %25, label %22

22:                                               ; preds = %19
  %23 = load ptr, ptr %10, align 8, !tbaa !60
  %24 = icmp eq ptr %23, null
  br i1 %24, label %25, label %26

25:                                               ; preds = %22, %19, %5
  call void @ERR_new()
  call void @ERR_set_debug(ptr noundef @.str, i32 noundef 664, ptr noundef @__func__.process_certConf)
  call void (i32, i32, ptr, ...) @ERR_set_error(i32 noundef 58, i32 noundef 103, ptr noundef null)
  store i32 0, ptr %6, align 4
  store i32 1, ptr %14, align 4
  br label %60

26:                                               ; preds = %22
  %27 = load ptr, ptr %12, align 8, !tbaa !11
  %28 = getelementptr inbounds nuw %struct.mock_srv_ctx, ptr %27, i32 0, i32 10
  %29 = load i32, ptr %28, align 8, !tbaa !36
  %30 = icmp eq i32 %29, 1
  br i1 %30, label %43, label %31

31:                                               ; preds = %26
  %32 = load ptr, ptr %12, align 8, !tbaa !11
  %33 = getelementptr inbounds nuw %struct.mock_srv_ctx, ptr %32, i32 0, i32 10
  %34 = load i32, ptr %33, align 8, !tbaa !36
  %35 = load ptr, ptr %8, align 8, !tbaa !41
  %36 = call i32 @OSSL_CMP_MSG_get_bodytype(ptr noundef %35)
  %37 = icmp eq i32 %34, %36
  br i1 %37, label %43, label %38

38:                                               ; preds = %31
  %39 = load ptr, ptr %12, align 8, !tbaa !11
  %40 = getelementptr inbounds nuw %struct.mock_srv_ctx, ptr %39, i32 0, i32 1
  %41 = load ptr, ptr %40, align 8, !tbaa !20
  %42 = icmp eq ptr %41, null
  br i1 %42, label %43, label %44

43:                                               ; preds = %38, %31, %26
  call void @ERR_new()
  call void @ERR_set_debug(ptr noundef @.str, i32 noundef 670, ptr noundef @__func__.process_certConf)
  call void (i32, i32, ptr, ...) @ERR_set_error(i32 noundef 58, i32 noundef 158, ptr noundef null)
  store i32 0, ptr %6, align 4
  store i32 1, ptr %14, align 4
  br label %60

44:                                               ; preds = %38
  %45 = load ptr, ptr %12, align 8, !tbaa !11
  %46 = getelementptr inbounds nuw %struct.mock_srv_ctx, ptr %45, i32 0, i32 1
  %47 = load ptr, ptr %46, align 8, !tbaa !20
  %48 = call ptr @X509_digest_sig(ptr noundef %47, ptr noundef null, ptr noundef null)
  store ptr %48, ptr %13, align 8, !tbaa !60
  %49 = icmp eq ptr %48, null
  br i1 %49, label %50, label %51

50:                                               ; preds = %44
  store i32 0, ptr %6, align 4
  store i32 1, ptr %14, align 4
  br label %60

51:                                               ; preds = %44
  %52 = load ptr, ptr %10, align 8, !tbaa !60
  %53 = load ptr, ptr %13, align 8, !tbaa !60
  %54 = call i32 @ASN1_OCTET_STRING_cmp(ptr noundef %52, ptr noundef %53)
  %55 = icmp ne i32 %54, 0
  br i1 %55, label %56, label %58

56:                                               ; preds = %51
  %57 = load ptr, ptr %13, align 8, !tbaa !60
  call void @ASN1_OCTET_STRING_free(ptr noundef %57)
  call void @ERR_new()
  call void @ERR_set_debug(ptr noundef @.str, i32 noundef 678, ptr noundef @__func__.process_certConf)
  call void (i32, i32, ptr, ...) @ERR_set_error(i32 noundef 58, i32 noundef 156, ptr noundef null)
  store i32 0, ptr %6, align 4
  store i32 1, ptr %14, align 4
  br label %60

58:                                               ; preds = %51
  %59 = load ptr, ptr %13, align 8, !tbaa !60
  call void @ASN1_OCTET_STRING_free(ptr noundef %59)
  store i32 1, ptr %6, align 4
  store i32 1, ptr %14, align 4
  br label %60

60:                                               ; preds = %58, %56, %50, %43, %25
  call void @llvm.lifetime.end.p0(i64 8, ptr %13) #5
  call void @llvm.lifetime.end.p0(i64 8, ptr %12) #5
  %61 = load i32, ptr %6, align 4
  ret i32 %61
}