; Function Attrs: nounwind uwtable
define internal range(i32 0, 2) i32 @process_certConf(ptr noundef %0, ptr noundef %1, i32 %2, ptr noundef %3, ptr readnone captures(none) %4) #0 {
  %6 = tail call ptr @OSSL_CMP_SRV_CTX_get0_custom_ctx(ptr noundef %0) #4
  %7 = icmp eq ptr %6, null
  %8 = icmp eq ptr %1, null
  %or.cond = or i1 %8, %7
  %9 = icmp eq ptr %3, null
  %or.cond3 = or i1 %9, %or.cond
  br i1 %or.cond3, label %.sink.split, label %10

10:                                               ; preds = %5
  %11 = getelementptr inbounds nuw i8, ptr %6, i64 80
  %12 = load i32, ptr %11, align 8, !tbaa !25
  %13 = icmp eq i32 %12, 1
  br i1 %13, label %.sink.split, label %14

14:                                               ; preds = %10
  %15 = tail call i32 @OSSL_CMP_MSG_get_bodytype(ptr noundef nonnull %1) #4
  %16 = icmp eq i32 %12, %15
  br i1 %16, label %.sink.split, label %17

17:                                               ; preds = %14
  %18 = getelementptr inbounds nuw i8, ptr %6, i64 8
  %19 = load ptr, ptr %18, align 8, !tbaa !16
  %20 = icmp eq ptr %19, null
  br i1 %20, label %.sink.split, label %21

21:                                               ; preds = %17
  %22 = tail call ptr @X509_digest_sig(ptr noundef nonnull %19, ptr noundef null, ptr noundef null) #4
  %23 = icmp eq ptr %22, null
  br i1 %23, label %26, label %24

24:                                               ; preds = %21
  %25 = tail call i32 @ASN1_OCTET_STRING_cmp(ptr noundef nonnull %3, ptr noundef nonnull %22) #4
  %.not = icmp eq i32 %25, 0
  tail call void @ASN1_OCTET_STRING_free(ptr noundef nonnull %22) #4
  br i1 %.not, label %26, label %.sink.split

.sink.split:                                      ; preds = %24, %10, %14, %17, %5
  %.sink22 = phi i32 [ 664, %5 ], [ 670, %17 ], [ 670, %14 ], [ 670, %10 ], [ 678, %24 ]
  %.sink = phi i32 [ 103, %5 ], [ 158, %17 ], [ 158, %14 ], [ 158, %10 ], [ 156, %24 ]
  tail call void @ERR_new() #4
  tail call void @ERR_set_debug(ptr noundef nonnull @.str, i32 noundef %.sink22, ptr noundef nonnull @__func__.process_certConf) #4
  tail call void (i32, i32, ptr, ...) @ERR_set_error(i32 noundef 58, i32 noundef %.sink, ptr noundef null) #4
  br label %26

26:                                               ; preds = %.sink.split, %24, %21
  %.0 = phi i32 [ 0, %21 ], [ 1, %24 ], [ 0, %.sink.split ]
  ret i32 %.0
}